target datalayout = "e-m:e-p270:32:32-p271:32:32-p272:64:64-i64:64-i128:128-f80:128-n8:16:32:64-S128"
target triple = "x86_64-pc-linux-gnu"

%class.symbol = type { ptr }
%"class.opt::optsmt" = type { ptr, ptr, ptr, %class.vector, %class.vector, %class.ref_vector, %class.ref_vector.1, %class.svector, %class.symbol, %class.ref, %class.ref, %class.svector.7, %class.ref_vector_core.9 }
%class.vector = type { ptr }
%class.ref_vector = type { %class.ref_vector_core }
%class.ref_vector_core = type { %class.ref_manager_wrapper, %class.ptr_vector }
%class.ref_manager_wrapper = type { ptr }
%class.ptr_vector = type { %class.vector.0 }
%class.vector.0 = type { ptr }
%class.ref_vector.1 = type { %class.ref_vector_core.2 }
%class.ref_vector_core.2 = type { %class.ref_manager_wrapper.3, %class.ptr_vector.4 }
%class.ref_manager_wrapper.3 = type { ptr }
%class.ptr_vector.4 = type { %class.vector.5 }
%class.vector.5 = type { ptr }
%class.svector = type { %class.vector.6 }
%class.vector.6 = type { ptr }
%class.ref = type { ptr }
%class.svector.7 = type { %class.vector.8 }
%class.vector.8 = type { ptr }
%class.ref_vector_core.9 = type { %class.ptr_vector.10 }
%class.ptr_vector.10 = type { %class.vector.11 }
%class.vector.11 = type { ptr }
%class.params_ref = type { ptr }
%struct.opt_params = type { ptr, %class.params_ref }

@.str.18 = private unnamed_addr constant [4 x i8] c"opt\00", align 1
@.str.19 = private unnamed_addr constant [14 x i8] c"optsmt_engine\00", align 1
@.str.20 = private unnamed_addr constant [6 x i8] c"basic\00", align 1

; Function Attrs: inlinehint mustprogress nounwind uwtable
define linkonce_odr hidden void @_ZN10opt_paramsD2Ev(ptr noundef nonnull align 8 dereferenceable(16) %0) unnamed_addr #8 comdat align 2 {
  %2 = alloca ptr, align 8
  store ptr %0, ptr %2, align 8, !tbaa !234
  %3 = load ptr, ptr %2, align 8
  %4 = getelementptr inbounds nuw %struct.opt_params, ptr %3, i32 0, i32 1
  call void @_ZN10params_refD1Ev(ptr noundef nonnull align 8 dereferenceable(8) %4) #3
  ret void
}

; Function Attrs: mustprogress uwtable
define linkonce_odr hidden ptr @_ZNK10opt_params13optsmt_engineEv(ptr noundef nonnull align 8 dereferenceable(16) %0) #6 comdat align 2 {
  %2 = alloca %class.symbol, align 8
  %3 = alloca ptr, align 8
  %4 = alloca %class.symbol, align 8
  store ptr %0, ptr %3, align 8, !tbaa !234
  %5 = load ptr, ptr %3, align 8
  %6 = getelementptr inbounds nuw %struct.opt_params, ptr %5, i32 0, i32 0
  %7 = load ptr, ptr %6, align 8, !tbaa !236
  %8 = getelementptr inbounds nuw %struct.opt_params, ptr %5, i32 0, i32 1
  call void @llvm.lifetime.start.p0(i64 8, ptr %4) #3
  call void @_ZN6symbolC1EPKc(ptr noundef nonnull align 8 dereferenceable(8) %4, ptr noundef @.str.20)
  %9 = call ptr @_ZNK10params_ref7get_symEPKcRKS_RK6symbol(ptr noundef nonnull align 8 dereferenceable(8) %7, ptr noundef @.str.19, ptr noundef nonnull align 8 dereferenceable(8) %8, ptr noundef nonnull align 8 dereferenceable(8) %4)
  %10 = getelementptr inbounds nuw %class.symbol, ptr %2, i32 0, i32 0
  store ptr %9, ptr %10, align 8
  call void @llvm.lifetime.end.p0(i64 8, ptr %4) #3
  %11 = getelementptr inbounds nuw %class.symbol, ptr %2, i32 0, i32 0
  %12 = load ptr, ptr %11, align 8
  ret ptr %12
}

; Function Attrs: mustprogress uwtable
define linkonce_odr hidden void @_ZN10opt_paramsC2ERK10params_ref(ptr noundef nonnull align 8 dereferenceable(16) %0, ptr noundef nonnull align 8 dereferenceable(8) %1) unnamed_addr #6 comdat align 2 {
  %3 = alloca ptr, align 8
  %4 = alloca ptr, align 8
  store ptr %0, ptr %3, align 8, !tbaa !234
  store ptr %1, ptr %4, align 8, !tbaa !228
  %5 = load ptr, ptr %3, align 8
  %6 = getelementptr inbounds nuw %struct.opt_params, ptr %5, i32 0, i32 0
  %7 = load ptr, ptr %4, align 8, !tbaa !228
  store ptr %7, ptr %6, align 8, !tbaa !228
  %8 = getelementptr inbounds nuw %struct.opt_params, ptr %5, i32 0, i32 1
  call void @_ZN7gparams10get_moduleEPKc(ptr dead_on_unwind writable sret(%class.params_ref) align 8 %8, ptr noundef @.str.18)
  ret void
}

; Function Attrs: mustprogress uwtable
define hidden void @_ZN3opt6optsmt11updt_paramsER10params_ref(ptr noundef nonnull align 8 dereferenceable(120) %0, ptr noundef nonnull align 8 dereferenceable(8) %1) #6 align 2 personality ptr @__gxx_personality_v0 {
  %3 = alloca ptr, align 8
  %4 = alloca ptr, align 8
  %5 = alloca %struct.opt_params, align 8
  %6 = alloca %class.symbol, align 8
  %7 = alloca ptr, align 8
  %8 = alloca i32, align 4
  store ptr %0, ptr %3, align 8, !tbaa !28
  store ptr %1, ptr %4, align 8, !tbaa !228
  %9 = load ptr, ptr %3, align 8
  call void @llvm.lifetime.start.p0(i64 16, ptr %5) #3
  %10 = load ptr, ptr %4, align 8, !tbaa !228
  call void @_ZN10opt_paramsC2ERK10params_ref(ptr noundef nonnull align 8 dereferenceable(16) %5, ptr noundef nonnull align 8 dereferenceable(8) %10)
  call void @llvm.lifetime.start.p0(i64 8, ptr %6) #3
  %11 = invoke ptr @_ZNK10opt_params13optsmt_engineEv(ptr noundef nonnull align 8 dereferenceable(16) %5)
          to label %12 unwind label %15

12:                                               ; preds = %2
  %13 = getelementptr inbounds nuw %class.symbol, ptr %6, i32 0, i32 0
  store ptr %11, ptr %13, align 8
  %14 = getelementptr inbounds nuw %"class.opt::optsmt", ptr %9, i32 0, i32 8
  call void @llvm.memcpy.p0.p0.i64(ptr align 8 %14, ptr align 8 %6, i64 8, i1 false), !tbaa.struct !233
  call void @llvm.lifetime.end.p0(i64 8, ptr %6) #3
  call void @_ZN10opt_paramsD2Ev(ptr noundef nonnull align 8 dereferenceable(16) %5) #3
  call void @llvm.lifetime.end.p0(i64 16, ptr %5) #3
  ret void

15:                                               ; preds = %2
  %16 = landingpad { ptr, i32 }
          cleanup
  %17 = extractvalue { ptr, i32 } %16, 0
  store ptr %17, ptr %7, align 8
  %18 = extractvalue { ptr, i32 } %16, 1
  store i32 %18, ptr %8, align 4
  call void @llvm.lifetime.end.p0(i64 8, ptr %6) #3
  call void @_ZN10opt_paramsD2Ev(ptr noundef nonnull align 8 dereferenceable(16) %5) #3
  call void @llvm.lifetime.end.p0(i64 16, ptr %5) #3
  br label %19

19:                                               ; preds = %15
  %20 = load ptr, ptr %7, align 8
  %21 = load i32, ptr %8, align 4
  %22 = insertvalue { ptr, i32 } poison, ptr %20, 0
  %23 = insertvalue { ptr, i32 } %22, i32 %21, 1
  resume { ptr, i32 } %23
}