; Function Attrs: mustprogress uwtable
define hidden void @_ZN3opt6optsmt11updt_paramsER10params_ref(ptr noundef nonnull writeonly align 8 captures(none) dereferenceable(120) %0, ptr noundef nonnull align 8 dereferenceable(8) %1) local_unnamed_addr #4 align 2 personality ptr @__gxx_personality_v0 {
  %3 = alloca %class.symbol, align 8
  %4 = alloca %struct.opt_params, align 8
  call void @llvm.lifetime.start.p0(i64 16, ptr nonnull %4) #23
  store ptr %1, ptr %4, align 8, !tbaa !197
  %5 = getelementptr inbounds nuw i8, ptr %4, i64 8
  call void @_ZN7gparams10get_moduleEPKc(ptr dead_on_unwind nonnull writable sret(%class.params_ref) align 8 %5, ptr noundef nonnull @.str.18)
  %6 = load ptr, ptr %4, align 8, !tbaa !199
  call void @llvm.lifetime.start.p0(i64 8, ptr nonnull %3) #23
  invoke void @_ZN6symbolC1EPKc(ptr noundef nonnull align 8 dereferenceable(8) %3, ptr noundef nonnull @.str.20)
          to label %.noexc unwind label %10

.noexc:                                           ; preds = %2
  %7 = invoke ptr @_ZNK10params_ref7get_symEPKcRKS_RK6symbol(ptr noundef nonnull align 8 dereferenceable(8) %6, ptr noundef nonnull @.str.19, ptr noundef nonnull align 8 dereferenceable(8) %5, ptr noundef nonnull align 8 dereferenceable(8) %3)
          to label %8 unwind label %10

8:                                                ; preds = %.noexc
  call void @llvm.lifetime.end.p0(i64 8, ptr nonnull %3) #23
  %9 = getelementptr inbounds nuw i8, ptr %0, i64 80
  store ptr %7, ptr %9, align 8, !tbaa !192
  call void @_ZN10params_refD1Ev(ptr noundef nonnull align 8 dereferenceable(8) %5) #23
  call void @llvm.lifetime.end.p0(i64 16, ptr nonnull %4) #23
  ret void

10:                                               ; preds = %.noexc, %2
  %11 = landingpad { ptr, i32 }
          cleanup
  call void @_ZN10params_refD1Ev(ptr noundef nonnull align 8 dereferenceable(8) %5) #23
  call void @llvm.lifetime.end.p0(i64 16, ptr nonnull %4) #23
  resume { ptr, i32 } %11
}